target datalayout = "e-m:e-p270:32:32-p271:32:32-p272:64:64-i64:64-i128:128-f80:128-n8:16:32:64-S128"
target triple = "x86_64-pc-linux-gnu"

%struct.Vec_Int_t_ = type { i32, i32, ptr }
%struct.Vta_Man_t_ = type { ptr, ptr, i32, i32, i32, ptr, ptr, ptr, i32, i32, ptr, i32, i32, i32, ptr, ptr, i32, i32, ptr, ptr, ptr, i64, i64, i64, i64 }
%struct.Abs_Par_t_ = type { i32, i32, i32, i32, i32, i32, i32, i32, i32, i32, i32, i32, i32, i32, i32, i32, i32, i32, i32, i32, i32, i32, i32, i32, i32, ptr, i32, i32, i32, i32, i32, i32 }
%struct.Gia_Man_t_ = type { ptr, ptr, i32, i32, i32, i32, ptr, ptr, i32, i32, i32, ptr, ptr, %struct.Vec_Int_t_, %struct.Vec_Int_t_, i32, i32, i32, %struct.Vec_Int_t_, ptr, ptr, ptr, i32, i32, i32, i32, ptr, ptr, ptr, ptr, ptr, i32, i32, ptr, i32, ptr, ptr, ptr, ptr, ptr, ptr, ptr, ptr, ptr, ptr, ptr, ptr, ptr, ptr, ptr, ptr, ptr, ptr, %struct.Vec_Int_t_, %struct.Vec_Int_t_, ptr, ptr, ptr, ptr, ptr, ptr, ptr, ptr, ptr, ptr, ptr, ptr, ptr, ptr, ptr, ptr, ptr, ptr, ptr, ptr, ptr, i32, float, float, ptr, ptr, i32, ptr, ptr, ptr, ptr, ptr, ptr, ptr, ptr, ptr, ptr, ptr, ptr, ptr, ptr, ptr, i64, i64, ptr, ptr, i32, i32, i32, i32, i32, i32, i32, i32, i32, i32, i32, i32, ptr, ptr, ptr, ptr, ptr, ptr, ptr, ptr, i32, i32, i32, ptr, i32, i32, ptr, ptr, ptr, ptr, ptr, ptr, i32, i32, ptr, %struct.Vec_Int_t_, %struct.Vec_Int_t_, %struct.Vec_Int_t_, ptr, ptr, ptr, i32, i32, i32, i32, ptr, ptr, ptr, ptr, ptr }

@.str.16 = private unnamed_addr constant [9 x i8] c"vabs.aig\00", align 1
@.str.17 = private unnamed_addr constant [44 x i8] c"Dumping abstracted model into file \22%s\22...\0A\00", align 1

; Function Attrs: inlinehint nounwind uwtable
define internal void @Vec_IntFreeP(ptr noundef %0) #2 {
  %2 = alloca ptr, align 8
  store ptr %0, ptr %2, align 8, !tbaa !168
  %3 = load ptr, ptr %2, align 8, !tbaa !168
  %4 = load ptr, ptr %3, align 8, !tbaa !3
  %5 = icmp eq ptr %4, null
  br i1 %5, label %6, label %7

6:                                                ; preds = %1
  br label %32

7:                                                ; preds = %1
  %8 = load ptr, ptr %2, align 8, !tbaa !168
  %9 = load ptr, ptr %8, align 8, !tbaa !3
  %10 = getelementptr inbounds nuw %struct.Vec_Int_t_, ptr %9, i32 0, i32 2
  %11 = load ptr, ptr %10, align 8, !tbaa !15
  %12 = icmp ne ptr %11, null
  br i1 %12, label %13, label %21

13:                                               ; preds = %7
  %14 = load ptr, ptr %2, align 8, !tbaa !168
  %15 = load ptr, ptr %14, align 8, !tbaa !3
  %16 = getelementptr inbounds nuw %struct.Vec_Int_t_, ptr %15, i32 0, i32 2
  %17 = load ptr, ptr %16, align 8, !tbaa !15
  call void @free(ptr noundef %17) #13
  %18 = load ptr, ptr %2, align 8, !tbaa !168
  %19 = load ptr, ptr %18, align 8, !tbaa !3
  %20 = getelementptr inbounds nuw %struct.Vec_Int_t_, ptr %19, i32 0, i32 2
  store ptr null, ptr %20, align 8, !tbaa !15
  br label %22

21:                                               ; preds = %7
  br label %22

22:                                               ; preds = %21, %13
  %23 = load ptr, ptr %2, align 8, !tbaa !168
  %24 = load ptr, ptr %23, align 8, !tbaa !3
  %25 = icmp ne ptr %24, null
  br i1 %25, label %26, label %30

26:                                               ; preds = %22
  %27 = load ptr, ptr %2, align 8, !tbaa !168
  %28 = load ptr, ptr %27, align 8, !tbaa !3
  call void @free(ptr noundef %28) #13
  %29 = load ptr, ptr %2, align 8, !tbaa !168
  store ptr null, ptr %29, align 8, !tbaa !3
  br label %31

30:                                               ; preds = %22
  br label %31

31:                                               ; preds = %30, %26
  br label %32

32:                                               ; preds = %31, %6
  ret void
}

; Function Attrs: nounwind uwtable
define void @Gia_VtaDumpAbsracted(ptr noundef %0, i32 noundef %1) #0 {
  %3 = alloca ptr, align 8
  %4 = alloca i32, align 4
  %5 = alloca ptr, align 8
  %6 = alloca ptr, align 8
  %7 = alloca ptr, align 8
  store ptr %0, ptr %3, align 8, !tbaa !37
  store i32 %1, ptr %4, align 4, !tbaa !8
  call void @llvm.lifetime.start.p0(i64 8, ptr %5) #13
  store ptr @.str.16, ptr %5, align 8, !tbaa !106
  call void @llvm.lifetime.start.p0(i64 8, ptr %6) #13
  %8 = load ptr, ptr %3, align 8, !tbaa !37
  %9 = getelementptr inbounds nuw %struct.Vta_Man_t_, ptr %8, i32 0, i32 1
  %10 = load ptr, ptr %9, align 8, !tbaa !47
  %11 = getelementptr inbounds nuw %struct.Abs_Par_t_, ptr %10, i32 0, i32 25
  %12 = load ptr, ptr %11, align 8, !tbaa !181
  %13 = icmp ne ptr %12, null
  br i1 %13, label %14, label %20

14:                                               ; preds = %2
  %15 = load ptr, ptr %3, align 8, !tbaa !37
  %16 = getelementptr inbounds nuw %struct.Vta_Man_t_, ptr %15, i32 0, i32 1
  %17 = load ptr, ptr %16, align 8, !tbaa !47
  %18 = getelementptr inbounds nuw %struct.Abs_Par_t_, ptr %17, i32 0, i32 25
  %19 = load ptr, ptr %18, align 8, !tbaa !181
  br label %22

20:                                               ; preds = %2
  %21 = load ptr, ptr %5, align 8, !tbaa !106
  br label %22

22:                                               ; preds = %20, %14
  %23 = phi ptr [ %19, %14 ], [ %21, %20 ]
  store ptr %23, ptr %6, align 8, !tbaa !106
  call void @llvm.lifetime.start.p0(i64 8, ptr %7) #13
  %24 = load i32, ptr %4, align 4, !tbaa !8
  %25 = icmp ne i32 %24, 0
  br i1 %25, label %26, label %28

26:                                               ; preds = %22
  %27 = load ptr, ptr %6, align 8, !tbaa !106
  call void (i32, ptr, ...) @Abc_Print(i32 noundef 1, ptr noundef @.str.17, ptr noundef %27)
  br label %28

28:                                               ; preds = %26, %22
  %29 = load ptr, ptr %3, align 8, !tbaa !37
  %30 = getelementptr inbounds nuw %struct.Vta_Man_t_, ptr %29, i32 0, i32 0
  %31 = load ptr, ptr %30, align 8, !tbaa !39
  %32 = getelementptr inbounds nuw %struct.Gia_Man_t_, ptr %31, i32 0, i32 59
  call void @Vec_IntFreeP(ptr noundef %32)
  %33 = load ptr, ptr %3, align 8, !tbaa !37
  %34 = getelementptr inbounds nuw %struct.Vta_Man_t_, ptr %33, i32 0, i32 18
  %35 = load ptr, ptr %34, align 8, !tbaa !137
  %36 = call ptr @Gia_VtaFramesToAbs(ptr noundef %35)
  %37 = load ptr, ptr %3, align 8, !tbaa !37
  %38 = getelementptr inbounds nuw %struct.Vta_Man_t_, ptr %37, i32 0, i32 0
  %39 = load ptr, ptr %38, align 8, !tbaa !39
  %40 = getelementptr inbounds nuw %struct.Gia_Man_t_, ptr %39, i32 0, i32 59
  store ptr %36, ptr %40, align 8, !tbaa !146
  %41 = load ptr, ptr %3, align 8, !tbaa !37
  %42 = getelementptr inbounds nuw %struct.Vta_Man_t_, ptr %41, i32 0, i32 0
  %43 = load ptr, ptr %42, align 8, !tbaa !39
  %44 = getelementptr inbounds nuw %struct.Gia_Man_t_, ptr %43, i32 0, i32 58
  call void @Vec_IntFreeP(ptr noundef %44)
  %45 = load ptr, ptr %3, align 8, !tbaa !37
  %46 = getelementptr inbounds nuw %struct.Vta_Man_t_, ptr %45, i32 0, i32 0
  %47 = load ptr, ptr %46, align 8, !tbaa !39
  %48 = load ptr, ptr %3, align 8, !tbaa !37
  %49 = getelementptr inbounds nuw %struct.Vta_Man_t_, ptr %48, i32 0, i32 0
  %50 = load ptr, ptr %49, align 8, !tbaa !39
  %51 = getelementptr inbounds nuw %struct.Gia_Man_t_, ptr %50, i32 0, i32 59
  %52 = load ptr, ptr %51, align 8, !tbaa !146
  %53 = call ptr @Gia_VtaConvertToGla(ptr noundef %47, ptr noundef %52)
  %54 = load ptr, ptr %3, align 8, !tbaa !37
  %55 = getelementptr inbounds nuw %struct.Vta_Man_t_, ptr %54, i32 0, i32 0
  %56 = load ptr, ptr %55, align 8, !tbaa !39
  %57 = getelementptr inbounds nuw %struct.Gia_Man_t_, ptr %56, i32 0, i32 58
  store ptr %53, ptr %57, align 8, !tbaa !180
  %58 = load ptr, ptr %3, align 8, !tbaa !37
  %59 = getelementptr inbounds nuw %struct.Vta_Man_t_, ptr %58, i32 0, i32 0
  %60 = load ptr, ptr %59, align 8, !tbaa !39
  %61 = getelementptr inbounds nuw %struct.Gia_Man_t_, ptr %60, i32 0, i32 59
  call void @Vec_IntFreeP(ptr noundef %61)
  %62 = load ptr, ptr %3, align 8, !tbaa !37
  %63 = getelementptr inbounds nuw %struct.Vta_Man_t_, ptr %62, i32 0, i32 0
  %64 = load ptr, ptr %63, align 8, !tbaa !39
  %65 = load ptr, ptr %3, align 8, !tbaa !37
  %66 = getelementptr inbounds nuw %struct.Vta_Man_t_, ptr %65, i32 0, i32 0
  %67 = load ptr, ptr %66, align 8, !tbaa !39
  %68 = getelementptr inbounds nuw %struct.Gia_Man_t_, ptr %67, i32 0, i32 58
  %69 = load ptr, ptr %68, align 8, !tbaa !180
  %70 = call ptr @Gia_ManDupAbsGates(ptr noundef %64, ptr noundef %69)
  store ptr %70, ptr %7, align 8, !tbaa !67
  %71 = load ptr, ptr %3, align 8, !tbaa !37
  %72 = getelementptr inbounds nuw %struct.Vta_Man_t_, ptr %71, i32 0, i32 0
  %73 = load ptr, ptr %72, align 8, !tbaa !39
  %74 = getelementptr inbounds nuw %struct.Gia_Man_t_, ptr %73, i32 0, i32 58
  call void @Vec_IntFreeP(ptr noundef %74)
  %75 = load ptr, ptr %7, align 8, !tbaa !67
  %76 = load ptr, ptr %6, align 8, !tbaa !106
  call void @Gia_AigerWrite(ptr noundef %75, ptr noundef %76, i32 noundef 0, i32 noundef 0, i32 noundef 0)
  %77 = load ptr, ptr %7, align 8, !tbaa !67
  call void @Gia_ManStop(ptr noundef %77)
  call void @llvm.lifetime.end.p0(i64 8, ptr %7) #13
  call void @llvm.lifetime.end.p0(i64 8, ptr %6) #13
  call void @llvm.lifetime.end.p0(i64 8, ptr %5) #13
  ret void
}