; Function Attrs: nounwind uwtable
define void @Gia_VtaDumpAbsracted(ptr noundef readonly captures(none) %0, i32 noundef %1) local_unnamed_addr #0 {
  %3 = getelementptr inbounds nuw i8, ptr %0, i64 8
  %4 = load ptr, ptr %3, align 8, !tbaa !55
  %5 = getelementptr inbounds nuw i8, ptr %4, i64 104
  %6 = load ptr, ptr %5, align 8, !tbaa !169
  %.not = icmp eq ptr %6, null
  %.str.16. = select i1 %.not, ptr @.str.16, ptr %6
  %.not18 = icmp eq i32 %1, 0
  br i1 %.not18, label %8, label %7

7:                                                ; preds = %2
  tail call void (i32, ptr, ...) @Abc_Print(i32 poison, ptr noundef nonnull @.str.17, ptr noundef nonnull %.str.16.)
  br label %8

8:                                                ; preds = %7, %2
  %9 = load ptr, ptr %0, align 8, !tbaa !30
  %10 = getelementptr inbounds nuw i8, ptr %9, i64 456
  %11 = load ptr, ptr %10, align 8, !tbaa !160
  %12 = icmp eq ptr %11, null
  br i1 %12, label %Vec_IntFreeP.exit, label %13

13:                                               ; preds = %8
  %14 = getelementptr inbounds nuw i8, ptr %11, i64 8
  %15 = load ptr, ptr %14, align 8, !tbaa !3
  %.not.i = icmp eq ptr %15, null
  br i1 %.not.i, label %18, label %.thread.i

.thread.i:                                        ; preds = %13
  tail call void @free(ptr noundef nonnull %15) #28
  %16 = load ptr, ptr %10, align 8, !tbaa !160
  %17 = getelementptr inbounds nuw i8, ptr %16, i64 8
  store ptr null, ptr %17, align 8, !tbaa !3
  br label %18

18:                                               ; preds = %.thread.i, %13
  %19 = phi ptr [ %16, %.thread.i ], [ %11, %13 ]
  tail call void @free(ptr noundef nonnull %19) #28
  store ptr null, ptr %10, align 8, !tbaa !160
  br label %Vec_IntFreeP.exit

Vec_IntFreeP.exit:                                ; preds = %8, %18
  %20 = getelementptr inbounds nuw i8, ptr %0, i64 112
  %21 = load ptr, ptr %20, align 8, !tbaa !130
  %22 = tail call ptr @Gia_VtaFramesToAbs(ptr noundef %21)
  %23 = load ptr, ptr %0, align 8, !tbaa !30
  %24 = getelementptr inbounds nuw i8, ptr %23, i64 456
  store ptr %22, ptr %24, align 8, !tbaa !148
  %25 = getelementptr inbounds nuw i8, ptr %23, i64 448
  %26 = load ptr, ptr %25, align 8, !tbaa !160
  %27 = icmp eq ptr %26, null
  br i1 %27, label %Vec_IntFreeP.exit21, label %28

28:                                               ; preds = %Vec_IntFreeP.exit
  %29 = getelementptr inbounds nuw i8, ptr %26, i64 8
  %30 = load ptr, ptr %29, align 8, !tbaa !3
  %.not.i19 = icmp eq ptr %30, null
  br i1 %.not.i19, label %33, label %.thread.i20

.thread.i20:                                      ; preds = %28
  tail call void @free(ptr noundef nonnull %30) #28
  %31 = load ptr, ptr %25, align 8, !tbaa !160
  %32 = getelementptr inbounds nuw i8, ptr %31, i64 8
  store ptr null, ptr %32, align 8, !tbaa !3
  br label %33

33:                                               ; preds = %.thread.i20, %28
  %34 = phi ptr [ %31, %.thread.i20 ], [ %26, %28 ]
  tail call void @free(ptr noundef nonnull %34) #28
  store ptr null, ptr %25, align 8, !tbaa !160
  %.pre = load ptr, ptr %0, align 8, !tbaa !30
  %.phi.trans.insert = getelementptr inbounds nuw i8, ptr %.pre, i64 456
  %.pre28 = load ptr, ptr %.phi.trans.insert, align 8, !tbaa !148
  br label %Vec_IntFreeP.exit21

Vec_IntFreeP.exit21:                              ; preds = %Vec_IntFreeP.exit, %33
  %35 = phi ptr [ %22, %Vec_IntFreeP.exit ], [ %.pre28, %33 ]
  %36 = phi ptr [ %23, %Vec_IntFreeP.exit ], [ %.pre, %33 ]
  %37 = tail call ptr @Gia_VtaConvertToGla(ptr noundef nonnull %36, ptr noundef %35) #28
  %38 = load ptr, ptr %0, align 8, !tbaa !30
  %39 = getelementptr inbounds nuw i8, ptr %38, i64 448
  store ptr %37, ptr %39, align 8, !tbaa !168
  %40 = getelementptr inbounds nuw i8, ptr %38, i64 456
  %41 = load ptr, ptr %40, align 8, !tbaa !160
  %42 = icmp eq ptr %41, null
  br i1 %42, label %Vec_IntFreeP.exit24, label %43

43:                                               ; preds = %Vec_IntFreeP.exit21
  %44 = getelementptr inbounds nuw i8, ptr %41, i64 8
  %45 = load ptr, ptr %44, align 8, !tbaa !3
  %.not.i22 = icmp eq ptr %45, null
  br i1 %.not.i22, label %48, label %.thread.i23

.thread.i23:                                      ; preds = %43
  tail call void @free(ptr noundef nonnull %45) #28
  %46 = load ptr, ptr %40, align 8, !tbaa !160
  %47 = getelementptr inbounds nuw i8, ptr %46, i64 8
  store ptr null, ptr %47, align 8, !tbaa !3
  br label %48

48:                                               ; preds = %.thread.i23, %43
  %49 = phi ptr [ %46, %.thread.i23 ], [ %41, %43 ]
  tail call void @free(ptr noundef nonnull %49) #28
  store ptr null, ptr %40, align 8, !tbaa !160
  %.pre29 = load ptr, ptr %0, align 8, !tbaa !30
  %.phi.trans.insert30 = getelementptr inbounds nuw i8, ptr %.pre29, i64 448
  %.pre31 = load ptr, ptr %.phi.trans.insert30, align 8, !tbaa !168
  br label %Vec_IntFreeP.exit24

Vec_IntFreeP.exit24:                              ; preds = %Vec_IntFreeP.exit21, %48
  %50 = phi ptr [ %37, %Vec_IntFreeP.exit21 ], [ %.pre31, %48 ]
  %51 = phi ptr [ %38, %Vec_IntFreeP.exit21 ], [ %.pre29, %48 ]
  %52 = tail call ptr @Gia_ManDupAbsGates(ptr noundef nonnull %51, ptr noundef %50) #28
  %53 = load ptr, ptr %0, align 8, !tbaa !30
  %54 = getelementptr inbounds nuw i8, ptr %53, i64 448
  %55 = load ptr, ptr %54, align 8, !tbaa !160
  %56 = icmp eq ptr %55, null
  br i1 %56, label %Vec_IntFreeP.exit27, label %57

57:                                               ; preds = %Vec_IntFreeP.exit24
  %58 = getelementptr inbounds nuw i8, ptr %55, i64 8
  %59 = load ptr, ptr %58, align 8, !tbaa !3
  %.not.i25 = icmp eq ptr %59, null
  br i1 %.not.i25, label %62, label %.thread.i26

.thread.i26:                                      ; preds = %57
  tail call void @free(ptr noundef nonnull %59) #28
  %60 = load ptr, ptr %54, align 8, !tbaa !160
  %61 = getelementptr inbounds nuw i8, ptr %60, i64 8
  store ptr null, ptr %61, align 8, !tbaa !3
  br label %62

62:                                               ; preds = %.thread.i26, %57
  %63 = phi ptr [ %60, %.thread.i26 ], [ %55, %57 ]
  tail call void @free(ptr noundef nonnull %63) #28
  store ptr null, ptr %54, align 8, !tbaa !160
  br label %Vec_IntFreeP.exit27

Vec_IntFreeP.exit27:                              ; preds = %Vec_IntFreeP.exit24, %62
  tail call void @Gia_AigerWrite(ptr noundef %52, ptr noundef nonnull %.str.16., i32 noundef 0, i32 noundef 0, i32 noundef 0) #28
  tail call void @Gia_ManStop(ptr noundef %52) #28
  ret void
}